(dp1
S'lixx'
p2
S'53eeafb5e25c3bb9fc0538a8913733c1'
p3
sS'yexi'
p4
S'74d6a1fa1f043565a6f3a0dcef961bb1'
p5
sS'aaa'
p6
S'1d5f026435633c7ad6f5c03118f3c590'
p7
sS'Agent'
p8
S'dad41e29dc36bb4c3eef7a2c903dc43d'
p9
s.